target datalayout = "e-m:e-p270:32:32-p271:32:32-p272:64:64-i64:64-i128:128-f80:128-n8:16:32:64-S128"
target triple = "x86_64-pc-linux-gnu"

%struct._zend_compiler_globals = type { %struct._zend_stack, ptr, ptr, i32, ptr, ptr, ptr, ptr, i8, i8, i8, i8, i8, %struct._zend_llist, ptr, i8, i8, i8, i8, ptr, i32, i32, %struct._zend_oparray_context, %struct._zend_file_context, ptr, %struct._zend_array, ptr, i64, i8, i8, i8, ptr, ptr, %struct._zend_stack, ptr, i32, ptr, ptr, i64, i64, ptr, ptr, ptr, ptr, i32, %struct._zend_stack }
%struct._zend_llist = type { ptr, ptr, i64, i64, ptr, i8, ptr }
%struct._zend_oparray_context = type { i32, i32, i32, i32, i32, i32, i32, ptr, ptr, i8 }
%struct._zend_file_context = type { %struct._zend_declarables, ptr, i8, i8, ptr, ptr, ptr, %struct._zend_array }
%struct._zend_declarables = type { i64 }
%struct._zend_array = type { %struct._zend_refcounted_h, %union.anon.0, i32, %union.anon.1, i32, i32, i32, i32, i64, ptr }
%struct._zend_refcounted_h = type { i32, %union.anon }
%union.anon = type { i32 }
%union.anon.0 = type { i32 }
%union.anon.1 = type { ptr }
%struct._zend_stack = type { i32, i32, i32, ptr }
%struct._zend_php_scanner_globals = type { ptr, ptr, i32, ptr, ptr, ptr, ptr, ptr, i32, %struct._zend_stack, %struct._zend_ptr_stack, %struct._zend_stack, i8, i32, i8, ptr, i64, ptr, i64, ptr, ptr, ptr, i32, ptr, ptr }
%struct._zend_ptr_stack = type { i32, i32, ptr, ptr, i8 }
%struct._zend_lex_state = type { i32, ptr, ptr, ptr, ptr, ptr, i32, %struct._zend_stack, %struct._zend_ptr_stack, %struct._zend_stack, ptr, i32, ptr, ptr, i64, ptr, i64, ptr, ptr, ptr, ptr, ptr, ptr, ptr }

@compiler_globals = external global %struct._zend_compiler_globals, align 8
@language_scanner_globals = global %struct._zend_php_scanner_globals zeroinitializer, align 8

; Function Attrs: nounwind uwtable
define void @zend_save_lexical_state(ptr noundef %0) #0 {
  %2 = alloca ptr, align 8
  store ptr %0, ptr %2, align 8
  %3 = load i32, ptr getelementptr inbounds (%struct._zend_php_scanner_globals, ptr @language_scanner_globals, i32 0, i32 2), align 8
  %4 = load ptr, ptr %2, align 8
  %5 = getelementptr inbounds %struct._zend_lex_state, ptr %4, i32 0, i32 0
  store i32 %3, ptr %5, align 8
  %6 = load ptr, ptr getelementptr inbounds (%struct._zend_php_scanner_globals, ptr @language_scanner_globals, i32 0, i32 3), align 8
  %7 = load ptr, ptr %2, align 8
  %8 = getelementptr inbounds %struct._zend_lex_state, ptr %7, i32 0, i32 1
  store ptr %6, ptr %8, align 8
  %9 = load ptr, ptr getelementptr inbounds (%struct._zend_php_scanner_globals, ptr @language_scanner_globals, i32 0, i32 4), align 8
  %10 = load ptr, ptr %2, align 8
  %11 = getelementptr inbounds %struct._zend_lex_state, ptr %10, i32 0, i32 2
  store ptr %9, ptr %11, align 8
  %12 = load ptr, ptr getelementptr inbounds (%struct._zend_php_scanner_globals, ptr @language_scanner_globals, i32 0, i32 5), align 8
  %13 = load ptr, ptr %2, align 8
  %14 = getelementptr inbounds %struct._zend_lex_state, ptr %13, i32 0, i32 3
  store ptr %12, ptr %14, align 8
  %15 = load ptr, ptr getelementptr inbounds (%struct._zend_php_scanner_globals, ptr @language_scanner_globals, i32 0, i32 6), align 8
  %16 = load ptr, ptr %2, align 8
  %17 = getelementptr inbounds %struct._zend_lex_state, ptr %16, i32 0, i32 4
  store ptr %15, ptr %17, align 8
  %18 = load ptr, ptr getelementptr inbounds (%struct._zend_php_scanner_globals, ptr @language_scanner_globals, i32 0, i32 7), align 8
  %19 = load ptr, ptr %2, align 8
  %20 = getelementptr inbounds %struct._zend_lex_state, ptr %19, i32 0, i32 5
  store ptr %18, ptr %20, align 8
  %21 = load ptr, ptr %2, align 8
  %22 = getelementptr inbounds %struct._zend_lex_state, ptr %21, i32 0, i32 7
  call void @llvm.memcpy.p0.p0.i64(ptr align 8 %22, ptr align 8 getelementptr inbounds (%struct._zend_php_scanner_globals, ptr @language_scanner_globals, i32 0, i32 9), i64 24, i1 false)
  call void @zend_stack_init(ptr noundef getelementptr inbounds (%struct._zend_php_scanner_globals, ptr @language_scanner_globals, i32 0, i32 9), i32 noundef 4)
  %23 = load ptr, ptr %2, align 8
  %24 = getelementptr inbounds %struct._zend_lex_state, ptr %23, i32 0, i32 9
  call void @llvm.memcpy.p0.p0.i64(ptr align 8 %24, ptr align 8 getelementptr inbounds (%struct._zend_php_scanner_globals, ptr @language_scanner_globals, i32 0, i32 11), i64 24, i1 false)
  call void @zend_stack_init(ptr noundef getelementptr inbounds (%struct._zend_php_scanner_globals, ptr @language_scanner_globals, i32 0, i32 11), i32 noundef 8)
  %25 = load ptr, ptr %2, align 8
  %26 = getelementptr inbounds %struct._zend_lex_state, ptr %25, i32 0, i32 8
  call void @llvm.memcpy.p0.p0.i64(ptr align 8 %26, ptr align 8 getelementptr inbounds (%struct._zend_php_scanner_globals, ptr @language_scanner_globals, i32 0, i32 10), i64 32, i1 false)
  call void @zend_ptr_stack_init(ptr noundef getelementptr inbounds (%struct._zend_php_scanner_globals, ptr @language_scanner_globals, i32 0, i32 10))
  %27 = load ptr, ptr @language_scanner_globals, align 8
  %28 = load ptr, ptr %2, align 8
  %29 = getelementptr inbounds %struct._zend_lex_state, ptr %28, i32 0, i32 10
  store ptr %27, ptr %29, align 8
  %30 = load i32, ptr getelementptr inbounds (%struct._zend_php_scanner_globals, ptr @language_scanner_globals, i32 0, i32 8), align 8
  %31 = load ptr, ptr %2, align 8
  %32 = getelementptr inbounds %struct._zend_lex_state, ptr %31, i32 0, i32 6
  store i32 %30, ptr %32, align 8
  %33 = load ptr, ptr getelementptr inbounds (%struct._zend_compiler_globals, ptr @compiler_globals, i32 0, i32 2), align 8
  %34 = load ptr, ptr %2, align 8
  %35 = getelementptr inbounds %struct._zend_lex_state, ptr %34, i32 0, i32 12
  store ptr %33, ptr %35, align 8
  %36 = load i32, ptr getelementptr inbounds (%struct._zend_compiler_globals, ptr @compiler_globals, i32 0, i32 3), align 8
  %37 = load ptr, ptr %2, align 8
  %38 = getelementptr inbounds %struct._zend_lex_state, ptr %37, i32 0, i32 11
  store i32 %36, ptr %38, align 8
  store ptr null, ptr getelementptr inbounds (%struct._zend_compiler_globals, ptr @compiler_globals, i32 0, i32 2), align 8
  %39 = load ptr, ptr getelementptr inbounds (%struct._zend_php_scanner_globals, ptr @language_scanner_globals, i32 0, i32 15), align 8
  %40 = load ptr, ptr %2, align 8
  %41 = getelementptr inbounds %struct._zend_lex_state, ptr %40, i32 0, i32 13
  store ptr %39, ptr %41, align 8
  %42 = load i64, ptr getelementptr inbounds (%struct._zend_php_scanner_globals, ptr @language_scanner_globals, i32 0, i32 16), align 8
  %43 = load ptr, ptr %2, align 8
  %44 = getelementptr inbounds %struct._zend_lex_state, ptr %43, i32 0, i32 14
  store i64 %42, ptr %44, align 8
  %45 = load ptr, ptr getelementptr inbounds (%struct._zend_php_scanner_globals, ptr @language_scanner_globals, i32 0, i32 17), align 8
  %46 = load ptr, ptr %2, align 8
  %47 = getelementptr inbounds %struct._zend_lex_state, ptr %46, i32 0, i32 15
  store ptr %45, ptr %47, align 8
  %48 = load i64, ptr getelementptr inbounds (%struct._zend_php_scanner_globals, ptr @language_scanner_globals, i32 0, i32 18), align 8
  %49 = load ptr, ptr %2, align 8
  %50 = getelementptr inbounds %struct._zend_lex_state, ptr %49, i32 0, i32 16
  store i64 %48, ptr %50, align 8
  %51 = load ptr, ptr getelementptr inbounds (%struct._zend_php_scanner_globals, ptr @language_scanner_globals, i32 0, i32 19), align 8
  %52 = load ptr, ptr %2, align 8
  %53 = getelementptr inbounds %struct._zend_lex_state, ptr %52, i32 0, i32 17
  store ptr %51, ptr %53, align 8
  %54 = load ptr, ptr getelementptr inbounds (%struct._zend_php_scanner_globals, ptr @language_scanner_globals, i32 0, i32 20), align 8
  %55 = load ptr, ptr %2, align 8
  %56 = getelementptr inbounds %struct._zend_lex_state, ptr %55, i32 0, i32 18
  store ptr %54, ptr %56, align 8
  %57 = load ptr, ptr getelementptr inbounds (%struct._zend_php_scanner_globals, ptr @language_scanner_globals, i32 0, i32 21), align 8
  %58 = load ptr, ptr %2, align 8
  %59 = getelementptr inbounds %struct._zend_lex_state, ptr %58, i32 0, i32 19
  store ptr %57, ptr %59, align 8
  %60 = load ptr, ptr getelementptr inbounds (%struct._zend_php_scanner_globals, ptr @language_scanner_globals, i32 0, i32 23), align 8
  %61 = load ptr, ptr %2, align 8
  %62 = getelementptr inbounds %struct._zend_lex_state, ptr %61, i32 0, i32 20
  store ptr %60, ptr %62, align 8
  %63 = load ptr, ptr getelementptr inbounds (%struct._zend_php_scanner_globals, ptr @language_scanner_globals, i32 0, i32 24), align 8
  %64 = load ptr, ptr %2, align 8
  %65 = getelementptr inbounds %struct._zend_lex_state, ptr %64, i32 0, i32 21
  store ptr %63, ptr %65, align 8
  %66 = load ptr, ptr getelementptr inbounds (%struct._zend_compiler_globals, ptr @compiler_globals, i32 0, i32 31), align 8
  %67 = load ptr, ptr %2, align 8
  %68 = getelementptr inbounds %struct._zend_lex_state, ptr %67, i32 0, i32 22
  store ptr %66, ptr %68, align 8
  %69 = load ptr, ptr getelementptr inbounds (%struct._zend_compiler_globals, ptr @compiler_globals, i32 0, i32 32), align 8
  %70 = load ptr, ptr %2, align 8
  %71 = getelementptr inbounds %struct._zend_lex_state, ptr %70, i32 0, i32 23
  store ptr %69, ptr %71, align 8
  ret void
}