; Function Attrs: nounwind uwtable
define void @zend_save_lexical_state(ptr nocapture noundef writeonly %0) local_unnamed_addr #0 {
  %2 = load i32, ptr getelementptr inbounds (%struct._zend_php_scanner_globals, ptr @language_scanner_globals, i64 0, i32 2), align 8
  store i32 %2, ptr %0, align 8
  %3 = load ptr, ptr getelementptr inbounds (%struct._zend_php_scanner_globals, ptr @language_scanner_globals, i64 0, i32 3), align 8
  %4 = getelementptr inbounds i8, ptr %0, i64 8
  store ptr %3, ptr %4, align 8
  %5 = load ptr, ptr getelementptr inbounds (%struct._zend_php_scanner_globals, ptr @language_scanner_globals, i64 0, i32 4), align 8
  %6 = getelementptr inbounds i8, ptr %0, i64 16
  store ptr %5, ptr %6, align 8
  %7 = load ptr, ptr getelementptr inbounds (%struct._zend_php_scanner_globals, ptr @language_scanner_globals, i64 0, i32 5), align 8
  %8 = getelementptr inbounds i8, ptr %0, i64 24
  store ptr %7, ptr %8, align 8
  %9 = load ptr, ptr getelementptr inbounds (%struct._zend_php_scanner_globals, ptr @language_scanner_globals, i64 0, i32 6), align 8
  %10 = getelementptr inbounds i8, ptr %0, i64 32
  store ptr %9, ptr %10, align 8
  %11 = load ptr, ptr getelementptr inbounds (%struct._zend_php_scanner_globals, ptr @language_scanner_globals, i64 0, i32 7), align 8
  %12 = getelementptr inbounds i8, ptr %0, i64 40
  store ptr %11, ptr %12, align 8
  %13 = getelementptr inbounds i8, ptr %0, i64 56
  tail call void @llvm.memcpy.p0.p0.i64(ptr noundef nonnull align 8 dereferenceable(24) %13, ptr noundef nonnull align 8 dereferenceable(24) getelementptr inbounds (%struct._zend_php_scanner_globals, ptr @language_scanner_globals, i64 0, i32 9), i64 24, i1 false)
  tail call void @zend_stack_init(ptr noundef nonnull getelementptr inbounds (%struct._zend_php_scanner_globals, ptr @language_scanner_globals, i64 0, i32 9), i32 noundef 4) #16
  %14 = getelementptr inbounds i8, ptr %0, i64 112
  tail call void @llvm.memcpy.p0.p0.i64(ptr noundef nonnull align 8 dereferenceable(24) %14, ptr noundef nonnull align 8 dereferenceable(24) getelementptr inbounds (%struct._zend_php_scanner_globals, ptr @language_scanner_globals, i64 0, i32 11), i64 24, i1 false)
  tail call void @zend_stack_init(ptr noundef nonnull getelementptr inbounds (%struct._zend_php_scanner_globals, ptr @language_scanner_globals, i64 0, i32 11), i32 noundef 8) #16
  %15 = getelementptr inbounds i8, ptr %0, i64 80
  tail call void @llvm.memcpy.p0.p0.i64(ptr noundef nonnull align 8 dereferenceable(32) %15, ptr noundef nonnull align 8 dereferenceable(32) getelementptr inbounds (%struct._zend_php_scanner_globals, ptr @language_scanner_globals, i64 0, i32 10), i64 32, i1 false)
  tail call void @zend_ptr_stack_init(ptr noundef nonnull getelementptr inbounds (%struct._zend_php_scanner_globals, ptr @language_scanner_globals, i64 0, i32 10)) #16
  %16 = load ptr, ptr @language_scanner_globals, align 8
  %17 = getelementptr inbounds i8, ptr %0, i64 136
  store ptr %16, ptr %17, align 8
  %18 = load i32, ptr getelementptr inbounds (%struct._zend_php_scanner_globals, ptr @language_scanner_globals, i64 0, i32 8), align 8
  %19 = getelementptr inbounds i8, ptr %0, i64 48
  store i32 %18, ptr %19, align 8
  %20 = load ptr, ptr getelementptr inbounds (%struct._zend_compiler_globals, ptr @compiler_globals, i64 0, i32 2), align 8
  %21 = getelementptr inbounds i8, ptr %0, i64 152
  store ptr %20, ptr %21, align 8
  %22 = load i32, ptr getelementptr inbounds (%struct._zend_compiler_globals, ptr @compiler_globals, i64 0, i32 3), align 8
  %23 = getelementptr inbounds i8, ptr %0, i64 144
  store i32 %22, ptr %23, align 8
  store ptr null, ptr getelementptr inbounds (%struct._zend_compiler_globals, ptr @compiler_globals, i64 0, i32 2), align 8
  %24 = load ptr, ptr getelementptr inbounds (%struct._zend_php_scanner_globals, ptr @language_scanner_globals, i64 0, i32 15), align 8
  %25 = getelementptr inbounds i8, ptr %0, i64 160
  store ptr %24, ptr %25, align 8
  %26 = load i64, ptr getelementptr inbounds (%struct._zend_php_scanner_globals, ptr @language_scanner_globals, i64 0, i32 16), align 8
  %27 = getelementptr inbounds i8, ptr %0, i64 168
  store i64 %26, ptr %27, align 8
  %28 = load ptr, ptr getelementptr inbounds (%struct._zend_php_scanner_globals, ptr @language_scanner_globals, i64 0, i32 17), align 8
  %29 = getelementptr inbounds i8, ptr %0, i64 176
  store ptr %28, ptr %29, align 8
  %30 = load i64, ptr getelementptr inbounds (%struct._zend_php_scanner_globals, ptr @language_scanner_globals, i64 0, i32 18), align 8
  %31 = getelementptr inbounds i8, ptr %0, i64 184
  store i64 %30, ptr %31, align 8
  %32 = load ptr, ptr getelementptr inbounds (%struct._zend_php_scanner_globals, ptr @language_scanner_globals, i64 0, i32 19), align 8
  %33 = getelementptr inbounds i8, ptr %0, i64 192
  store ptr %32, ptr %33, align 8
  %34 = load ptr, ptr getelementptr inbounds (%struct._zend_php_scanner_globals, ptr @language_scanner_globals, i64 0, i32 20), align 8
  %35 = getelementptr inbounds i8, ptr %0, i64 200
  store ptr %34, ptr %35, align 8
  %36 = load ptr, ptr getelementptr inbounds (%struct._zend_php_scanner_globals, ptr @language_scanner_globals, i64 0, i32 21), align 8
  %37 = getelementptr inbounds i8, ptr %0, i64 208
  store ptr %36, ptr %37, align 8
  %38 = load ptr, ptr getelementptr inbounds (%struct._zend_php_scanner_globals, ptr @language_scanner_globals, i64 0, i32 23), align 8
  %39 = getelementptr inbounds i8, ptr %0, i64 216
  store ptr %38, ptr %39, align 8
  %40 = load ptr, ptr getelementptr inbounds (%struct._zend_php_scanner_globals, ptr @language_scanner_globals, i64 0, i32 24), align 8
  %41 = getelementptr inbounds i8, ptr %0, i64 224
  store ptr %40, ptr %41, align 8
  %42 = load ptr, ptr getelementptr inbounds (%struct._zend_compiler_globals, ptr @compiler_globals, i64 0, i32 31), align 8
  %43 = getelementptr inbounds i8, ptr %0, i64 232
  store ptr %42, ptr %43, align 8
  %44 = load ptr, ptr getelementptr inbounds (%struct._zend_compiler_globals, ptr @compiler_globals, i64 0, i32 32), align 8
  %45 = getelementptr inbounds i8, ptr %0, i64 240
  store ptr %44, ptr %45, align 8
  ret void
}